target datalayout = "e-m:e-p270:32:32-p271:32:32-p272:64:64-i64:64-i128:128-f80:128-n8:16:32:64-S128"
target triple = "x86_64-pc-linux-gnu"

%struct.Abc_Ntk_t_ = type { i32, i32, ptr, ptr, ptr, ptr, ptr, ptr, ptr, ptr, ptr, ptr, ptr, [11 x i32], i32, i32, i32, i32, ptr, i32, ptr, ptr, i32, i32, i32, double, i32, %struct.Vec_Int_t_, ptr, ptr, ptr, ptr, ptr, float, i32, ptr, ptr, ptr, ptr, ptr, ptr, ptr, ptr, ptr, ptr, ptr, ptr, ptr, ptr, ptr, ptr, ptr, ptr, ptr, ptr, ptr }
%struct.Vec_Int_t_ = type { i32, i32, ptr }
%struct.Vec_Ptr_t_ = type { i32, i32, ptr }

@.str.7 = private unnamed_addr constant [2 x i8] c"\0A\00", align 1
@.str.48 = private unnamed_addr constant [47 x i8] c"The distribution of %s and %s in the network:\0A\00", align 1
@.str.49 = private unnamed_addr constant [68 x i8] c"  Number   %s with %s  %s with %s          Repr1             Repr2\0A\00", align 1
@.str.50 = private unnamed_addr constant [7 x i8] c"%5d : \00", align 1
@.str.51 = private unnamed_addr constant [15 x i8] c"              \00", align 1
@.str.52 = private unnamed_addr constant [7 x i8] c"%12d  \00", align 1
@.str.53 = private unnamed_addr constant [5 x i8] c"    \00", align 1
@.str.54 = private unnamed_addr constant [9 x i8] c"        \00", align 1
@.str.55 = private unnamed_addr constant [7 x i8] c"%12s  \00", align 1

; Function Attrs: nounwind uwtable
define internal ptr @Vec_PtrEntry(ptr noundef %0, i32 noundef %1) #0 {
  %3 = alloca ptr, align 8
  %4 = alloca i32, align 4
  store ptr %0, ptr %3, align 8
  store i32 %1, ptr %4, align 4
  %5 = load ptr, ptr %3, align 8
  %6 = getelementptr inbounds %struct.Vec_Ptr_t_, ptr %5, i32 0, i32 2
  %7 = load ptr, ptr %6, align 8
  %8 = load i32, ptr %4, align 4
  %9 = sext i32 %8 to i64
  %10 = getelementptr inbounds ptr, ptr %7, i64 %9
  %11 = load ptr, ptr %10, align 8
  ret ptr %11
}

; Function Attrs: nounwind uwtable
define internal ptr @Abc_NtkObj(ptr noundef %0, i32 noundef %1) #0 {
  %3 = alloca ptr, align 8
  %4 = alloca i32, align 4
  store ptr %0, ptr %3, align 8
  store i32 %1, ptr %4, align 4
  %5 = load ptr, ptr %3, align 8
  %6 = getelementptr inbounds %struct.Abc_Ntk_t_, ptr %5, i32 0, i32 5
  %7 = load ptr, ptr %6, align 8
  %8 = load i32, ptr %4, align 4
  %9 = call ptr @Vec_PtrEntry(ptr noundef %7, i32 noundef %8)
  ret ptr %9
}

; Function Attrs: nounwind uwtable
define internal i32 @Vec_IntEntry(ptr noundef %0, i32 noundef %1) #0 {
  %3 = alloca ptr, align 8
  %4 = alloca i32, align 4
  store ptr %0, ptr %3, align 8
  store i32 %1, ptr %4, align 4
  %5 = load ptr, ptr %3, align 8
  %6 = getelementptr inbounds %struct.Vec_Int_t_, ptr %5, i32 0, i32 2
  %7 = load ptr, ptr %6, align 8
  %8 = load i32, ptr %4, align 4
  %9 = sext i32 %8 to i64
  %10 = getelementptr inbounds i32, ptr %7, i64 %9
  %11 = load i32, ptr %10, align 4
  ret i32 %11
}

; Function Attrs: nounwind uwtable
define internal i32 @Abc_MaxInt(i32 noundef %0, i32 noundef %1) #0 {
  %3 = alloca i32, align 4
  %4 = alloca i32, align 4
  store i32 %0, ptr %3, align 4
  store i32 %1, ptr %4, align 4
  %5 = load i32, ptr %3, align 4
  %6 = load i32, ptr %4, align 4
  %7 = icmp sgt i32 %5, %6
  br i1 %7, label %8, label %10

8:                                                ; preds = %2
  %9 = load i32, ptr %3, align 4
  br label %12

10:                                               ; preds = %2
  %11 = load i32, ptr %4, align 4
  br label %12

12:                                               ; preds = %10, %8
  %13 = phi i32 [ %9, %8 ], [ %11, %10 ]
  ret i32 %13
}

; Function Attrs: nounwind uwtable
define internal i32 @Vec_IntSize(ptr noundef %0) #0 {
  %2 = alloca ptr, align 8
  store ptr %0, ptr %2, align 8
  %3 = load ptr, ptr %2, align 8
  %4 = getelementptr inbounds %struct.Vec_Int_t_, ptr %3, i32 0, i32 1
  %5 = load i32, ptr %4, align 4
  ret i32 %5
}

; Function Attrs: nounwind uwtable
define void @Abc_NtkPrintDistribInternal(ptr noundef %0, ptr noundef %1, ptr noundef %2, ptr noundef %3, ptr noundef %4, ptr noundef %5, ptr noundef %6, ptr noundef %7, ptr noundef %8, ptr noundef %9, ptr noundef %10) #0 {
  %12 = alloca ptr, align 8
  %13 = alloca ptr, align 8
  %14 = alloca ptr, align 8
  %15 = alloca ptr, align 8
  %16 = alloca ptr, align 8
  %17 = alloca ptr, align 8
  %18 = alloca ptr, align 8
  %19 = alloca ptr, align 8
  %20 = alloca ptr, align 8
  %21 = alloca ptr, align 8
  %22 = alloca ptr, align 8
  %23 = alloca i32, align 4
  %24 = alloca i32, align 4
  %25 = alloca i32, align 4
  %26 = alloca i32, align 4
  store ptr %0, ptr %12, align 8
  store ptr %1, ptr %13, align 8
  store ptr %2, ptr %14, align 8
  store ptr %3, ptr %15, align 8
  store ptr %4, ptr %16, align 8
  store ptr %5, ptr %17, align 8
  store ptr %6, ptr %18, align 8
  store ptr %7, ptr %19, align 8
  store ptr %8, ptr %20, align 8
  store ptr %9, ptr %21, align 8
  store ptr %10, ptr %22, align 8
  %27 = load ptr, ptr %19, align 8
  %28 = call i32 @Vec_IntSize(ptr noundef %27)
  %29 = load ptr, ptr %20, align 8
  %30 = call i32 @Vec_IntSize(ptr noundef %29)
  %31 = call i32 @Abc_MaxInt(i32 noundef %28, i32 noundef %30)
  store i32 %31, ptr %24, align 4
  %32 = load ptr, ptr %12, align 8
  %33 = load ptr, ptr %14, align 8
  %34 = load ptr, ptr %15, align 8
  %35 = call i32 (ptr, ptr, ...) @fprintf(ptr noundef %32, ptr noundef @.str.48, ptr noundef %33, ptr noundef %34) #11
  %36 = load ptr, ptr %12, align 8
  %37 = load ptr, ptr %16, align 8
  %38 = load ptr, ptr %17, align 8
  %39 = load ptr, ptr %16, align 8
  %40 = load ptr, ptr %18, align 8
  %41 = call i32 (ptr, ptr, ...) @fprintf(ptr noundef %36, ptr noundef @.str.49, ptr noundef %37, ptr noundef %38, ptr noundef %39, ptr noundef %40) #11
  store i32 0, ptr %23, align 4
  br label %42

42:                                               ; preds = %137, %11
  %43 = load i32, ptr %23, align 4
  %44 = load i32, ptr %24, align 4
  %45 = icmp slt i32 %43, %44
  br i1 %45, label %46, label %140

46:                                               ; preds = %42
  %47 = load i32, ptr %23, align 4
  %48 = load ptr, ptr %19, align 8
  %49 = call i32 @Vec_IntSize(ptr noundef %48)
  %50 = icmp slt i32 %47, %49
  br i1 %50, label %51, label %55

51:                                               ; preds = %46
  %52 = load ptr, ptr %19, align 8
  %53 = load i32, ptr %23, align 4
  %54 = call i32 @Vec_IntEntry(ptr noundef %52, i32 noundef %53)
  br label %56

55:                                               ; preds = %46
  br label %56

56:                                               ; preds = %55, %51
  %57 = phi i32 [ %54, %51 ], [ 0, %55 ]
  store i32 %57, ptr %25, align 4
  %58 = load i32, ptr %23, align 4
  %59 = load ptr, ptr %20, align 8
  %60 = call i32 @Vec_IntSize(ptr noundef %59)
  %61 = icmp slt i32 %58, %60
  br i1 %61, label %62, label %66

62:                                               ; preds = %56
  %63 = load ptr, ptr %20, align 8
  %64 = load i32, ptr %23, align 4
  %65 = call i32 @Vec_IntEntry(ptr noundef %63, i32 noundef %64)
  br label %67

66:                                               ; preds = %56
  br label %67

67:                                               ; preds = %66, %62
  %68 = phi i32 [ %65, %62 ], [ 0, %66 ]
  store i32 %68, ptr %26, align 4
  %69 = load i32, ptr %25, align 4
  %70 = icmp eq i32 %69, 0
  br i1 %70, label %71, label %75

71:                                               ; preds = %67
  %72 = load i32, ptr %26, align 4
  %73 = icmp eq i32 %72, 0
  br i1 %73, label %74, label %75

74:                                               ; preds = %71
  br label %137

75:                                               ; preds = %71, %67
  %76 = load ptr, ptr %12, align 8
  %77 = load i32, ptr %23, align 4
  %78 = call i32 (ptr, ptr, ...) @fprintf(ptr noundef %76, ptr noundef @.str.50, i32 noundef %77) #11
  %79 = load i32, ptr %25, align 4
  %80 = icmp eq i32 %79, 0
  br i1 %80, label %81, label %84

81:                                               ; preds = %75
  %82 = load ptr, ptr %12, align 8
  %83 = call i32 (ptr, ptr, ...) @fprintf(ptr noundef %82, ptr noundef @.str.51) #11
  br label %88

84:                                               ; preds = %75
  %85 = load ptr, ptr %12, align 8
  %86 = load i32, ptr %25, align 4
  %87 = call i32 (ptr, ptr, ...) @fprintf(ptr noundef %85, ptr noundef @.str.52, i32 noundef %86) #11
  br label %88

88:                                               ; preds = %84, %81
  %89 = load ptr, ptr %12, align 8
  %90 = call i32 (ptr, ptr, ...) @fprintf(ptr noundef %89, ptr noundef @.str.53) #11
  %91 = load i32, ptr %26, align 4
  %92 = icmp eq i32 %91, 0
  br i1 %92, label %93, label %96

93:                                               ; preds = %88
  %94 = load ptr, ptr %12, align 8
  %95 = call i32 (ptr, ptr, ...) @fprintf(ptr noundef %94, ptr noundef @.str.51) #11
  br label %100

96:                                               ; preds = %88
  %97 = load ptr, ptr %12, align 8
  %98 = load i32, ptr %26, align 4
  %99 = call i32 (ptr, ptr, ...) @fprintf(ptr noundef %97, ptr noundef @.str.52, i32 noundef %98) #11
  br label %100

100:                                              ; preds = %96, %93
  %101 = load ptr, ptr %12, align 8
  %102 = call i32 (ptr, ptr, ...) @fprintf(ptr noundef %101, ptr noundef @.str.54) #11
  %103 = load i32, ptr %25, align 4
  %104 = icmp eq i32 %103, 0
  br i1 %104, label %105, label %108

105:                                              ; preds = %100
  %106 = load ptr, ptr %12, align 8
  %107 = call i32 (ptr, ptr, ...) @fprintf(ptr noundef %106, ptr noundef @.str.51) #11
  br label %117

108:                                              ; preds = %100
  %109 = load ptr, ptr %12, align 8
  %110 = load ptr, ptr %13, align 8
  %111 = load ptr, ptr %21, align 8
  %112 = load i32, ptr %23, align 4
  %113 = call i32 @Vec_IntEntry(ptr noundef %111, i32 noundef %112)
  %114 = call ptr @Abc_NtkObj(ptr noundef %110, i32 noundef %113)
  %115 = call ptr @Abc_ObjName(ptr noundef %114)
  %116 = call i32 (ptr, ptr, ...) @fprintf(ptr noundef %109, ptr noundef @.str.55, ptr noundef %115) #11
  br label %117

117:                                              ; preds = %108, %105
  %118 = load ptr, ptr %12, align 8
  %119 = call i32 (ptr, ptr, ...) @fprintf(ptr noundef %118, ptr noundef @.str.53) #11
  %120 = load i32, ptr %26, align 4
  %121 = icmp eq i32 %120, 0
  br i1 %121, label %122, label %125

122:                                              ; preds = %117
  %123 = load ptr, ptr %12, align 8
  %124 = call i32 (ptr, ptr, ...) @fprintf(ptr noundef %123, ptr noundef @.str.51) #11
  br label %134

125:                                              ; preds = %117
  %126 = load ptr, ptr %12, align 8
  %127 = load ptr, ptr %13, align 8
  %128 = load ptr, ptr %22, align 8
  %129 = load i32, ptr %23, align 4
  %130 = call i32 @Vec_IntEntry(ptr noundef %128, i32 noundef %129)
  %131 = call ptr @Abc_NtkObj(ptr noundef %127, i32 noundef %130)
  %132 = call ptr @Abc_ObjName(ptr noundef %131)
  %133 = call i32 (ptr, ptr, ...) @fprintf(ptr noundef %126, ptr noundef @.str.55, ptr noundef %132) #11
  br label %134

134:                                              ; preds = %125, %122
  %135 = load ptr, ptr %12, align 8
  %136 = call i32 (ptr, ptr, ...) @fprintf(ptr noundef %135, ptr noundef @.str.7) #11
  br label %137

137:                                              ; preds = %134, %74
  %138 = load i32, ptr %23, align 4
  %139 = add nsw i32 %138, 1
  store i32 %139, ptr %23, align 4
  br label %42, !llvm.loop !48

140:                                              ; preds = %42
  ret void
}