; Function Attrs: nounwind uwtable
define void @Abc_NtkPrintDistribInternal(ptr noundef captures(none) %0, ptr noundef readonly captures(none) %1, ptr noundef %2, ptr noundef %3, ptr noundef %4, ptr noundef %5, ptr noundef %6, ptr noundef readonly captures(none) %7, ptr noundef readonly captures(none) %8, ptr noundef readonly captures(none) %9, ptr noundef readonly captures(none) %10) local_unnamed_addr #0 {
  %12 = getelementptr i8, ptr %7, i64 4
  %.val55 = load i32, ptr %12, align 4
  %13 = getelementptr i8, ptr %8, i64 4
  %.val54 = load i32, ptr %13, align 4
  %14 = tail call noundef i32 @llvm.smax.i32(i32 %.val55, i32 %.val54)
  %15 = tail call i32 (ptr, ptr, ...) @fprintf(ptr noundef %0, ptr noundef nonnull @.str.48, ptr noundef %2, ptr noundef %3) #19
  %16 = tail call i32 (ptr, ptr, ...) @fprintf(ptr noundef %0, ptr noundef nonnull @.str.49, ptr noundef %4, ptr noundef %5, ptr noundef %4, ptr noundef %6) #19
  %17 = icmp sgt i32 %14, 0
  br i1 %17, label %.lr.ph, label %._crit_edge

.lr.ph:                                           ; preds = %11
  %18 = getelementptr i8, ptr %7, i64 8
  %19 = getelementptr i8, ptr %8, i64 8
  %20 = getelementptr i8, ptr %9, i64 8
  %21 = getelementptr i8, ptr %1, i64 32
  %22 = getelementptr i8, ptr %10, i64 8
  %wide.trip.count = zext nneg i32 %14 to i64
  br label %23

23:                                               ; preds = %.lr.ph, %80
  %indvars.iv = phi i64 [ 0, %.lr.ph ], [ %indvars.iv.next, %80 ]
  %.val53 = load i32, ptr %12, align 4
  %24 = sext i32 %.val53 to i64
  %25 = icmp slt i64 %indvars.iv, %24
  br i1 %25, label %26, label %29

26:                                               ; preds = %23
  %.val59 = load ptr, ptr %18, align 8
  %27 = getelementptr inbounds nuw i32, ptr %.val59, i64 %indvars.iv
  %28 = load i32, ptr %27, align 4
  br label %29

29:                                               ; preds = %23, %26
  %30 = phi i32 [ %28, %26 ], [ 0, %23 ]
  %.val52 = load i32, ptr %13, align 4
  %31 = sext i32 %.val52 to i64
  %32 = icmp slt i64 %indvars.iv, %31
  br i1 %32, label %33, label %36

33:                                               ; preds = %29
  %.val58 = load ptr, ptr %19, align 8
  %34 = getelementptr inbounds nuw i32, ptr %.val58, i64 %indvars.iv
  %35 = load i32, ptr %34, align 4
  br label %36

36:                                               ; preds = %29, %33
  %37 = phi i32 [ %35, %33 ], [ 0, %29 ]
  %38 = icmp eq i32 %30, 0
  %39 = icmp eq i32 %37, 0
  %or.cond = select i1 %38, i1 %39, i1 false
  br i1 %or.cond, label %80, label %40

40:                                               ; preds = %36
  %41 = trunc nuw nsw i64 %indvars.iv to i32
  %42 = tail call i32 (ptr, ptr, ...) @fprintf(ptr noundef %0, ptr noundef nonnull @.str.50, i32 noundef %41) #19
  br i1 %38, label %43, label %45

43:                                               ; preds = %40
  %44 = tail call i64 @fwrite(ptr nonnull @.str.51, i64 14, i64 1, ptr %0)
  br label %47

45:                                               ; preds = %40
  %46 = tail call i32 (ptr, ptr, ...) @fprintf(ptr noundef %0, ptr noundef nonnull @.str.52, i32 noundef %30) #19
  br label %47

47:                                               ; preds = %45, %43
  %48 = tail call i64 @fwrite(ptr nonnull @.str.53, i64 4, i64 1, ptr %0)
  br i1 %39, label %49, label %51

49:                                               ; preds = %47
  %50 = tail call i64 @fwrite(ptr nonnull @.str.51, i64 14, i64 1, ptr %0)
  br label %53

51:                                               ; preds = %47
  %52 = tail call i32 (ptr, ptr, ...) @fprintf(ptr noundef %0, ptr noundef nonnull @.str.52, i32 noundef %37) #19
  br label %53

53:                                               ; preds = %51, %49
  %54 = tail call i64 @fwrite(ptr nonnull @.str.54, i64 8, i64 1, ptr %0)
  br i1 %38, label %55, label %57

55:                                               ; preds = %53
  %56 = tail call i64 @fwrite(ptr nonnull @.str.51, i64 14, i64 1, ptr %0)
  br label %66

57:                                               ; preds = %53
  %.val57 = load ptr, ptr %20, align 8
  %58 = getelementptr inbounds nuw i32, ptr %.val57, i64 %indvars.iv
  %59 = load i32, ptr %58, align 4
  %.val51 = load ptr, ptr %21, align 8
  %60 = getelementptr i8, ptr %.val51, i64 8
  %.val51.val = load ptr, ptr %60, align 8
  %61 = sext i32 %59 to i64
  %62 = getelementptr inbounds ptr, ptr %.val51.val, i64 %61
  %63 = load ptr, ptr %62, align 8
  %64 = tail call ptr @Abc_ObjName(ptr noundef %63) #19
  %65 = tail call i32 (ptr, ptr, ...) @fprintf(ptr noundef %0, ptr noundef nonnull @.str.55, ptr noundef %64) #19
  br label %66

66:                                               ; preds = %57, %55
  %67 = tail call i64 @fwrite(ptr nonnull @.str.53, i64 4, i64 1, ptr %0)
  br i1 %39, label %68, label %70

68:                                               ; preds = %66
  %69 = tail call i64 @fwrite(ptr nonnull @.str.51, i64 14, i64 1, ptr %0)
  br label %79

70:                                               ; preds = %66
  %.val56 = load ptr, ptr %22, align 8
  %71 = getelementptr inbounds nuw i32, ptr %.val56, i64 %indvars.iv
  %72 = load i32, ptr %71, align 4
  %.val = load ptr, ptr %21, align 8
  %73 = getelementptr i8, ptr %.val, i64 8
  %.val.val = load ptr, ptr %73, align 8
  %74 = sext i32 %72 to i64
  %75 = getelementptr inbounds ptr, ptr %.val.val, i64 %74
  %76 = load ptr, ptr %75, align 8
  %77 = tail call ptr @Abc_ObjName(ptr noundef %76) #19
  %78 = tail call i32 (ptr, ptr, ...) @fprintf(ptr noundef %0, ptr noundef nonnull @.str.55, ptr noundef %77) #19
  br label %79

79:                                               ; preds = %70, %68
  %fputc = tail call i32 @fputc(i32 10, ptr %0)
  br label %80

80:                                               ; preds = %36, %79
  %indvars.iv.next = add nuw nsw i64 %indvars.iv, 1
  %exitcond.not = icmp eq i64 %indvars.iv.next, %wide.trip.count
  br i1 %exitcond.not, label %._crit_edge, label %23, !llvm.loop !51

._crit_edge:                                      ; preds = %80, %11
  ret void
}